target datalayout = "e-m:e-p270:32:32-p271:32:32-p272:64:64-i64:64-i128:128-f80:128-n8:16:32:64-S128"
target triple = "x86_64-pc-linux-gnu"

%struct.Gia_Man_t_ = type { ptr, ptr, i32, i32, i32, i32, ptr, ptr, i32, i32, i32, ptr, ptr, %struct.Vec_Int_t_, %struct.Vec_Int_t_, i32, i32, i32, %struct.Vec_Int_t_, ptr, ptr, ptr, i32, i32, i32, i32, ptr, ptr, ptr, ptr, ptr, i32, i32, ptr, i32, ptr, ptr, ptr, ptr, ptr, ptr, ptr, ptr, ptr, ptr, ptr, ptr, ptr, ptr, ptr, ptr, ptr, ptr, %struct.Vec_Int_t_, %struct.Vec_Int_t_, ptr, ptr, ptr, ptr, ptr, ptr, ptr, ptr, ptr, ptr, ptr, ptr, ptr, ptr, ptr, ptr, ptr, ptr, ptr, ptr, ptr, i32, float, float, ptr, ptr, i32, ptr, ptr, ptr, ptr, ptr, ptr, ptr, ptr, ptr, ptr, ptr, ptr, ptr, ptr, ptr, i64, i64, ptr, ptr, i32, i32, i32, i32, i32, i32, i32, i32, i32, i32, i32, i32, ptr, ptr, ptr, ptr, ptr, ptr, ptr, ptr, i32, i32, i32, ptr, i32, i32, ptr, ptr, ptr, ptr, ptr, ptr, i32, i32, ptr, %struct.Vec_Int_t_, %struct.Vec_Int_t_, %struct.Vec_Int_t_, ptr, ptr, ptr, i32, i32, i32, i32, ptr, ptr, ptr, ptr, ptr }
%struct.Vec_Int_t_ = type { i32, i32, ptr }
%struct.Swp_Man_t_ = type { ptr, i32, i32, ptr, ptr, ptr, ptr, ptr, ptr, ptr, ptr, ptr, i32, i32, i32, i32, i32, i32, i64, i64, i64, i64, i64, i64, i64 }
%struct.Ssc_Pars_t_ = type { i32, i32, i32, i32, i32, i32, i32 }

; Function Attrs: inlinehint nounwind uwtable
define internal i32 @Vec_IntSize(ptr noundef %0) #2 {
  %2 = alloca ptr, align 8
  store ptr %0, ptr %2, align 8, !tbaa !29
  %3 = load ptr, ptr %2, align 8, !tbaa !29
  %4 = getelementptr inbounds nuw %struct.Vec_Int_t_, ptr %3, i32 0, i32 1
  %5 = load i32, ptr %4, align 4, !tbaa !30
  ret i32 %5
}

; Function Attrs: inlinehint nounwind uwtable
define internal i32 @Gia_ManConst0Lit() #2 {
  ret i32 0
}

; Function Attrs: inlinehint nounwind uwtable
define internal i32 @Gia_ManPoNum(ptr noundef %0) #2 {
  %2 = alloca ptr, align 8
  store ptr %0, ptr %2, align 8, !tbaa !3
  %3 = load ptr, ptr %2, align 8, !tbaa !3
  %4 = getelementptr inbounds nuw %struct.Gia_Man_t_, ptr %3, i32 0, i32 12
  %5 = load ptr, ptr %4, align 8, !tbaa !89
  %6 = call i32 @Vec_IntSize(ptr noundef %5)
  %7 = load ptr, ptr %2, align 8, !tbaa !3
  %8 = getelementptr inbounds nuw %struct.Gia_Man_t_, ptr %7, i32 0, i32 2
  %9 = load i32, ptr %8, align 8, !tbaa !87
  %10 = sub nsw i32 %6, %9
  ret i32 %10
}

; Function Attrs: nounwind uwtable
define ptr @Gia_SweeperCondVector(ptr noundef %0) #0 {
  %2 = alloca ptr, align 8
  %3 = alloca ptr, align 8
  store ptr %0, ptr %2, align 8, !tbaa !3
  call void @llvm.lifetime.start.p0(i64 8, ptr %3) #13
  %4 = load ptr, ptr %2, align 8, !tbaa !3
  %5 = getelementptr inbounds nuw %struct.Gia_Man_t_, ptr %4, i32 0, i32 99
  %6 = load ptr, ptr %5, align 8, !tbaa !33
  store ptr %6, ptr %3, align 8, !tbaa !31
  %7 = load ptr, ptr %3, align 8, !tbaa !31
  %8 = getelementptr inbounds nuw %struct.Swp_Man_t_, ptr %7, i32 0, i32 4
  %9 = load ptr, ptr %8, align 8, !tbaa !39
  call void @llvm.lifetime.end.p0(i64 8, ptr %3) #13
  ret ptr %9
}

; Function Attrs: nounwind uwtable
define ptr @Gia_SweeperSweep(ptr noundef %0, ptr noundef %1, i32 noundef %2, i32 noundef %3, i32 noundef %4, i32 noundef %5) #0 {
  %7 = alloca ptr, align 8
  %8 = alloca ptr, align 8
  %9 = alloca i32, align 4
  %10 = alloca i32, align 4
  %11 = alloca i32, align 4
  %12 = alloca i32, align 4
  %13 = alloca ptr, align 8
  %14 = alloca ptr, align 8
  %15 = alloca ptr, align 8
  %16 = alloca ptr, align 8
  %17 = alloca %struct.Ssc_Pars_t_, align 4
  %18 = alloca ptr, align 8
  store ptr %0, ptr %7, align 8, !tbaa !3
  store ptr %1, ptr %8, align 8, !tbaa !29
  store i32 %2, ptr %9, align 4, !tbaa !47
  store i32 %3, ptr %10, align 4, !tbaa !47
  store i32 %4, ptr %11, align 4, !tbaa !47
  store i32 %5, ptr %12, align 4, !tbaa !47
  call void @llvm.lifetime.start.p0(i64 8, ptr %13) #13
  call void @llvm.lifetime.start.p0(i64 8, ptr %14) #13
  call void @llvm.lifetime.start.p0(i64 8, ptr %15) #13
  call void @llvm.lifetime.start.p0(i64 8, ptr %16) #13
  call void @llvm.lifetime.start.p0(i64 28, ptr %17) #13
  call void @llvm.lifetime.start.p0(i64 8, ptr %18) #13
  store ptr %17, ptr %18, align 8, !tbaa !125
  %19 = load ptr, ptr %18, align 8, !tbaa !125
  call void @Ssc_ManSetDefaultParams(ptr noundef %19)
  %20 = load i32, ptr %9, align 4, !tbaa !47
  %21 = load ptr, ptr %18, align 8, !tbaa !125
  %22 = getelementptr inbounds nuw %struct.Ssc_Pars_t_, ptr %21, i32 0, i32 0
  store i32 %20, ptr %22, align 4, !tbaa !127
  %23 = load i32, ptr %10, align 4, !tbaa !47
  %24 = load ptr, ptr %18, align 8, !tbaa !125
  %25 = getelementptr inbounds nuw %struct.Ssc_Pars_t_, ptr %24, i32 0, i32 1
  store i32 %23, ptr %25, align 4, !tbaa !129
  %26 = load i32, ptr %11, align 4, !tbaa !47
  %27 = load ptr, ptr %18, align 8, !tbaa !125
  %28 = getelementptr inbounds nuw %struct.Ssc_Pars_t_, ptr %27, i32 0, i32 6
  store i32 %26, ptr %28, align 4, !tbaa !130
  %29 = load i32, ptr %12, align 4, !tbaa !47
  %30 = load ptr, ptr %18, align 8, !tbaa !125
  %31 = getelementptr inbounds nuw %struct.Ssc_Pars_t_, ptr %30, i32 0, i32 5
  store i32 %29, ptr %31, align 4, !tbaa !131
  %32 = load ptr, ptr %7, align 8, !tbaa !3
  %33 = call ptr @Gia_SweeperCondVector(ptr noundef %32)
  store ptr %33, ptr %13, align 8, !tbaa !29
  %34 = load ptr, ptr %7, align 8, !tbaa !3
  %35 = load ptr, ptr %13, align 8, !tbaa !29
  %36 = call ptr @Gia_SweeperExtractUserLogic(ptr noundef %34, ptr noundef %35, ptr noundef null, ptr noundef null)
  store ptr %36, ptr %14, align 8, !tbaa !3
  %37 = load ptr, ptr %7, align 8, !tbaa !3
  %38 = load ptr, ptr %8, align 8, !tbaa !29
  %39 = call ptr @Gia_SweeperExtractUserLogic(ptr noundef %37, ptr noundef %38, ptr noundef null, ptr noundef null)
  store ptr %39, ptr %15, align 8, !tbaa !3
  %40 = load ptr, ptr %15, align 8, !tbaa !3
  call void @Gia_ManSetPhase(ptr noundef %40)
  %41 = load ptr, ptr %14, align 8, !tbaa !3
  %42 = call i32 @Gia_ManPoNum(ptr noundef %41)
  %43 = icmp eq i32 %42, 0
  br i1 %43, label %44, label %48

44:                                               ; preds = %6
  %45 = load ptr, ptr %14, align 8, !tbaa !3
  %46 = call i32 @Gia_ManConst0Lit()
  %47 = call i32 @Gia_ManAppendCo(ptr noundef %45, i32 noundef %46)
  br label %48

48:                                               ; preds = %44, %6
  %49 = load ptr, ptr %15, align 8, !tbaa !3
  %50 = load ptr, ptr %14, align 8, !tbaa !3
  %51 = load ptr, ptr %18, align 8, !tbaa !125
  %52 = call ptr @Ssc_PerformSweeping(ptr noundef %49, ptr noundef %50, ptr noundef %51)
  store ptr %52, ptr %16, align 8, !tbaa !3
  %53 = load ptr, ptr %14, align 8, !tbaa !3
  call void @Gia_ManStop(ptr noundef %53)
  %54 = load ptr, ptr %15, align 8, !tbaa !3
  call void @Gia_ManStop(ptr noundef %54)
  %55 = load ptr, ptr %16, align 8, !tbaa !3
  call void @llvm.lifetime.end.p0(i64 8, ptr %18) #13
  call void @llvm.lifetime.end.p0(i64 28, ptr %17) #13
  call void @llvm.lifetime.end.p0(i64 8, ptr %16) #13
  call void @llvm.lifetime.end.p0(i64 8, ptr %15) #13
  call void @llvm.lifetime.end.p0(i64 8, ptr %14) #13
  call void @llvm.lifetime.end.p0(i64 8, ptr %13) #13
  ret ptr %55
}