; Function Attrs: nounwind uwtable
define ptr @Gia_SweeperSweep(ptr noundef %0, ptr noundef readonly captures(none) %1, i32 noundef %2, i32 noundef %3, i32 noundef %4, i32 noundef %5) local_unnamed_addr #0 {
  %7 = alloca %struct.Ssc_Pars_t_, align 4
  call void @llvm.lifetime.start.p0(i64 28, ptr nonnull %7) #23
  call void @Ssc_ManSetDefaultParams(ptr noundef nonnull %7) #23
  store i32 %2, ptr %7, align 4, !tbaa !128
  %8 = getelementptr inbounds nuw i8, ptr %7, i64 4
  store i32 %3, ptr %8, align 4, !tbaa !130
  %9 = getelementptr inbounds nuw i8, ptr %7, i64 24
  store i32 %4, ptr %9, align 4, !tbaa !131
  %10 = getelementptr inbounds nuw i8, ptr %7, i64 20
  store i32 %5, ptr %10, align 4, !tbaa !132
  %11 = getelementptr inbounds nuw i8, ptr %0, i64 768
  %12 = load ptr, ptr %11, align 8, !tbaa !10
  %13 = getelementptr inbounds nuw i8, ptr %12, i64 24
  %14 = load ptr, ptr %13, align 8, !tbaa !36
  %15 = call ptr @Gia_SweeperExtractUserLogic(ptr noundef %0, ptr noundef %14, ptr noundef null, ptr noundef null)
  %16 = call ptr @Gia_SweeperExtractUserLogic(ptr noundef %0, ptr noundef %1, ptr noundef null, ptr noundef null)
  call void @Gia_ManSetPhase(ptr noundef %16) #23
  %17 = getelementptr i8, ptr %15, i64 16
  %.val = load i32, ptr %17, align 8, !tbaa !73
  %18 = getelementptr i8, ptr %15, i64 72
  %.val22 = load ptr, ptr %18, align 8, !tbaa !94
  %19 = getelementptr i8, ptr %.val22, i64 4
  %.val22.val = load i32, ptr %19, align 4, !tbaa !3
  %20 = icmp eq i32 %.val22.val, %.val
  br i1 %20, label %21, label %22

21:                                               ; preds = %6
  call fastcc void @Gia_ManAppendCo(ptr noundef nonnull %15, i32 noundef 0)
  br label %22

22:                                               ; preds = %21, %6
  %23 = call ptr @Ssc_PerformSweeping(ptr noundef %16, ptr noundef nonnull %15, ptr noundef nonnull %7) #23
  call void @Gia_ManStop(ptr noundef nonnull %15) #23
  call void @Gia_ManStop(ptr noundef %16) #23
  call void @llvm.lifetime.end.p0(i64 28, ptr nonnull %7) #23
  ret ptr %23
}